; ModuleID = '39/1111.c'
source_filename = "39/1111.c"
target datalayout = "e-m:e-p270:32:32-p271:32:32-p272:64:64-i64:64-f80:128-n8:16:32:64-S128"
target triple = "x86_64-pc-linux-gnu"

%struct.anon = type { [20 x i8], i32, i32, i8, i8, i32 }

@.str = private unnamed_addr constant [3 x i8] c"%d\00", align 1
@.str.1 = private unnamed_addr constant [18 x i8] c"%s %d %d %c %c %d\00", align 1
@.str.2 = private unnamed_addr constant [4 x i8] c"%s\0A\00", align 1
@.str.3 = private unnamed_addr constant [4 x i8] c"%d\0A\00", align 1

; Function Attrs: noinline nounwind uwtable
define dso_local i32 @main() #0 {
  %1 = alloca i32, align 4
  %2 = alloca i32, align 4
  %3 = alloca i32, align 4
  %4 = alloca [100 x i32], align 16
  %5 = alloca i32, align 4
  %6 = alloca [100 x %struct.anon], align 16
  %7 = alloca i32, align 4
  %8 = alloca i32, align 4
  store i32 0, i32* %1, align 4
  %9 = bitcast [100 x i32]* %4 to i8*
  call void @llvm.memset.p0i8.i64(i8* align 16 %9, i8 0, i64 400, i1 false)
  store i32 0, i32* %5, align 4
  %10 = getelementptr inbounds [100 x i32], [100 x i32]* %4, i64 0, i64 0
  %11 = load i32, i32* %10, align 16
  store i32 %11, i32* %7, align 4
  %12 = call i32 (i8*, ...) @__isoc99_scanf(i8* getelementptr inbounds ([3 x i8], [3 x i8]* @.str, i64 0, i64 0), i32* %2)
  store i32 0, i32* %3, align 4
  br label %13

13:                                               ; preds = %158, %0
  %14 = load i32, i32* %3, align 4
  %15 = load i32, i32* %2, align 4
  %16 = icmp slt i32 %14, %15
  br i1 %16, label %17, label %161

17:                                               ; preds = %13
  %18 = load i32, i32* %3, align 4
  %19 = sext i32 %18 to i64
  %20 = getelementptr inbounds [100 x %struct.anon], [100 x %struct.anon]* %6, i64 0, i64 %19
  %21 = getelementptr inbounds %struct.anon, %struct.anon* %20, i32 0, i32 0
  %22 = getelementptr inbounds [20 x i8], [20 x i8]* %21, i64 0, i64 0
  %23 = load i32, i32* %3, align 4
  %24 = sext i32 %23 to i64
  %25 = getelementptr inbounds [100 x %struct.anon], [100 x %struct.anon]* %6, i64 0, i64 %24
  %26 = getelementptr inbounds %struct.anon, %struct.anon* %25, i32 0, i32 1
  %27 = load i32, i32* %3, align 4
  %28 = sext i32 %27 to i64
  %29 = getelementptr inbounds [100 x %struct.anon], [100 x %struct.anon]* %6, i64 0, i64 %28
  %30 = getelementptr inbounds %struct.anon, %struct.anon* %29, i32 0, i32 2
  %31 = load i32, i32* %3, align 4
  %32 = sext i32 %31 to i64
  %33 = getelementptr inbounds [100 x %struct.anon], [100 x %struct.anon]* %6, i64 0, i64 %32
  %34 = getelementptr inbounds %struct.anon, %struct.anon* %33, i32 0, i32 3
  %35 = load i32, i32* %3, align 4
  %36 = sext i32 %35 to i64
  %37 = getelementptr inbounds [100 x %struct.anon], [100 x %struct.anon]* %6, i64 0, i64 %36
  %38 = getelementptr inbounds %struct.anon, %struct.anon* %37, i32 0, i32 4
  %39 = load i32, i32* %3, align 4
  %40 = sext i32 %39 to i64
  %41 = getelementptr inbounds [100 x %struct.anon], [100 x %struct.anon]* %6, i64 0, i64 %40
  %42 = getelementptr inbounds %struct.anon, %struct.anon* %41, i32 0, i32 5
  %43 = call i32 (i8*, ...) @__isoc99_scanf(i8* getelementptr inbounds ([18 x i8], [18 x i8]* @.str.1, i64 0, i64 0), i8* %22, i32* %26, i32* %30, i8* %34, i8* %38, i32* %42)
  %44 = load i32, i32* %3, align 4
  %45 = sext i32 %44 to i64
  %46 = getelementptr inbounds [100 x %struct.anon], [100 x %struct.anon]* %6, i64 0, i64 %45
  %47 = getelementptr inbounds %struct.anon, %struct.anon* %46, i32 0, i32 1
  %48 = load i32, i32* %47, align 4
  %49 = icmp sgt i32 %48, 80
  br i1 %49, label %50, label %63

50:                                               ; preds = %17
  %51 = load i32, i32* %3, align 4
  %52 = sext i32 %51 to i64
  %53 = getelementptr inbounds [100 x %struct.anon], [100 x %struct.anon]* %6, i64 0, i64 %52
  %54 = getelementptr inbounds %struct.anon, %struct.anon* %53, i32 0, i32 5
  %55 = load i32, i32* %54, align 4
  %56 = icmp sge i32 %55, 1
  br i1 %56, label %57, label %63

57:                                               ; preds = %50
  %58 = load i32, i32* %3, align 4
  %59 = sext i32 %58 to i64
  %60 = getelementptr inbounds [100 x i32], [100 x i32]* %4, i64 0, i64 %59
  %61 = load i32, i32* %60, align 4
  %62 = add nsw i32 %61, 8000
  store i32 %62, i32* %60, align 4
  br label %63

63:                                               ; preds = %57, %50, %17
  %64 = load i32, i32* %3, align 4
  %65 = sext i32 %64 to i64
  %66 = getelementptr inbounds [100 x %struct.anon], [100 x %struct.anon]* %6, i64 0, i64 %65
  %67 = getelementptr inbounds %struct.anon, %struct.anon* %66, i32 0, i32 1
  %68 = load i32, i32* %67, align 4
  %69 = icmp sgt i32 %68, 85
  br i1 %69, label %70, label %83

70:                                               ; preds = %63
  %71 = load i32, i32* %3, align 4
  %72 = sext i32 %71 to i64
  %73 = getelementptr inbounds [100 x %struct.anon], [100 x %struct.anon]* %6, i64 0, i64 %72
  %74 = getelementptr inbounds %struct.anon, %struct.anon* %73, i32 0, i32 2
  %75 = load i32, i32* %74, align 4
  %76 = icmp sgt i32 %75, 80
  br i1 %76, label %77, label %83

77:                                               ; preds = %70
  %78 = load i32, i32* %3, align 4
  %79 = sext i32 %78 to i64
  %80 = getelementptr inbounds [100 x i32], [100 x i32]* %4, i64 0, i64 %79
  %81 = load i32, i32* %80, align 4
  %82 = add nsw i32 %81, 4000
  store i32 %82, i32* %80, align 4
  br label %83

83:                                               ; preds = %77, %70, %63
  %84 = load i32, i32* %3, align 4
  %85 = sext i32 %84 to i64
  %86 = getelementptr inbounds [100 x %struct.anon], [100 x %struct.anon]* %6, i64 0, i64 %85
  %87 = getelementptr inbounds %struct.anon, %struct.anon* %86, i32 0, i32 1
  %88 = load i32, i32* %87, align 4
  %89 = icmp sgt i32 %88, 90
  br i1 %89, label %90, label %96

90:                                               ; preds = %83
  %91 = load i32, i32* %3, align 4
  %92 = sext i32 %91 to i64
  %93 = getelementptr inbounds [100 x i32], [100 x i32]* %4, i64 0, i64 %92
  %94 = load i32, i32* %93, align 4
  %95 = add nsw i32 %94, 2000
  store i32 %95, i32* %93, align 4
  br label %96

96:                                               ; preds = %90, %83
  %97 = load i32, i32* %3, align 4
  %98 = sext i32 %97 to i64
  %99 = getelementptr inbounds [100 x %struct.anon], [100 x %struct.anon]* %6, i64 0, i64 %98
  %100 = getelementptr inbounds %struct.anon, %struct.anon* %99, i32 0, i32 1
  %101 = load i32, i32* %100, align 4
  %102 = icmp sgt i32 %101, 85
  br i1 %102, label %103, label %117

103:                                              ; preds = %96
  %104 = load i32, i32* %3, align 4
  %105 = sext i32 %104 to i64
  %106 = getelementptr inbounds [100 x %struct.anon], [100 x %struct.anon]* %6, i64 0, i64 %105
  %107 = getelementptr inbounds %struct.anon, %struct.anon* %106, i32 0, i32 4
  %108 = load i8, i8* %107, align 1
  %109 = sext i8 %108 to i32
  %110 = icmp eq i32 %109, 89
  br i1 %110, label %111, label %117

111:                                              ; preds = %103
  %112 = load i32, i32* %3, align 4
  %113 = sext i32 %112 to i64
  %114 = getelementptr inbounds [100 x i32], [100 x i32]* %4, i64 0, i64 %113
  %115 = load i32, i32* %114, align 4
  %116 = add nsw i32 %115, 1000
  store i32 %116, i32* %114, align 4
  br label %117

117:                                              ; preds = %111, %103, %96
  %118 = load i32, i32* %3, align 4
  %119 = sext i32 %118 to i64
  %120 = getelementptr inbounds [100 x %struct.anon], [100 x %struct.anon]* %6, i64 0, i64 %119
  %121 = getelementptr inbounds %struct.anon, %struct.anon* %120, i32 0, i32 2
  %122 = load i32, i32* %121, align 4
  %123 = icmp sgt i32 %122, 80
  br i1 %123, label %124, label %138

124:                                              ; preds = %117
  %125 = load i32, i32* %3, align 4
  %126 = sext i32 %125 to i64
  %127 = getelementptr inbounds [100 x %struct.anon], [100 x %struct.anon]* %6, i64 0, i64 %126
  %128 = getelementptr inbounds %struct.anon, %struct.anon* %127, i32 0, i32 3
  %129 = load i8, i8* %128, align 4
  %130 = sext i8 %129 to i32
  %131 = icmp eq i32 %130, 89
  br i1 %131, label %132, label %138

132:                                              ; preds = %124
  %133 = load i32, i32* %3, align 4
  %134 = sext i32 %133 to i64
  %135 = getelementptr inbounds [100 x i32], [100 x i32]* %4, i64 0, i64 %134
  %136 = load i32, i32* %135, align 4
  %137 = add nsw i32 %136, 850
  store i32 %137, i32* %135, align 4
  br label %138

138:                                              ; preds = %132, %124, %117
  %139 = load i32, i32* %3, align 4
  %140 = sext i32 %139 to i64
  %141 = getelementptr inbounds [100 x i32], [100 x i32]* %4, i64 0, i64 %140
  %142 = load i32, i32* %141, align 4
  %143 = load i32, i32* %5, align 4
  %144 = add nsw i32 %143, %142
  store i32 %144, i32* %5, align 4
  %145 = load i32, i32* %3, align 4
  %146 = sext i32 %145 to i64
  %147 = getelementptr inbounds [100 x i32], [100 x i32]* %4, i64 0, i64 %146
  %148 = load i32, i32* %147, align 4
  %149 = load i32, i32* %7, align 4
  %150 = icmp sgt i32 %148, %149
  br i1 %150, label %151, label %157

151:                                              ; preds = %138
  %152 = load i32, i32* %3, align 4
  %153 = sext i32 %152 to i64
  %154 = getelementptr inbounds [100 x i32], [100 x i32]* %4, i64 0, i64 %153
  %155 = load i32, i32* %154, align 4
  store i32 %155, i32* %7, align 4
  %156 = load i32, i32* %3, align 4
  store i32 %156, i32* %8, align 4
  br label %157

157:                                              ; preds = %151, %138
  br label %158

158:                                              ; preds = %157
  %159 = load i32, i32* %3, align 4
  %160 = add nsw i32 %159, 1
  store i32 %160, i32* %3, align 4
  br label %13

161:                                              ; preds = %13
  %162 = load i32, i32* %8, align 4
  %163 = sext i32 %162 to i64
  %164 = getelementptr inbounds [100 x %struct.anon], [100 x %struct.anon]* %6, i64 0, i64 %163
  %165 = getelementptr inbounds %struct.anon, %struct.anon* %164, i32 0, i32 0
  %166 = getelementptr inbounds [20 x i8], [20 x i8]* %165, i64 0, i64 0
  %167 = call i32 (i8*, ...) @printf(i8* getelementptr inbounds ([4 x i8], [4 x i8]* @.str.2, i64 0, i64 0), i8* %166)
  %168 = load i32, i32* %7, align 4
  %169 = call i32 (i8*, ...) @printf(i8* getelementptr inbounds ([4 x i8], [4 x i8]* @.str.3, i64 0, i64 0), i32 %168)
  %170 = load i32, i32* %5, align 4
  %171 = call i32 (i8*, ...) @printf(i8* getelementptr inbounds ([4 x i8], [4 x i8]* @.str.3, i64 0, i64 0), i32 %170)
  ret i32 0
}

; Function Attrs: argmemonly nounwind willreturn
declare void @llvm.memset.p0i8.i64(i8* nocapture writeonly, i8, i64, i1 immarg) #1

declare dso_local i32 @__isoc99_scanf(i8*, ...) #2

declare dso_local i32 @printf(i8*, ...) #2


!llvm.module.flags = !{!0}
!llvm.ident = !{!1}

!0 = !{i32 1, !"wchar_size", i32 4}
!1 = !{!"clang version 10.0.0-4ubuntu1 "}
